; Function Attrs: mustprogress nofree norecurse nosync nounwind willreturn memory(read, inaccessiblemem: none) uwtable
define dso_local noundef zeroext i1 @_ZNK5vcpkg4Json5Value7is_nullEv(ptr nocapture noundef nonnull readonly align 8 dereferenceable(8) %0) local_unnamed_addr #0 align 2 {
  %2 = load ptr, ptr %0, align 8
  %.not.i = icmp eq ptr %2, null
  br i1 %.not.i, label %_ZNK5vcpkg4Json5Value4kindEv.exit, label %3

3:                                                ; preds = %1
  %4 = load i32, ptr %2, align 8
  %5 = icmp eq i32 %4, 0
  br label %_ZNK5vcpkg4Json5Value4kindEv.exit

_ZNK5vcpkg4Json5Value4kindEv.exit:                ; preds = %1, %3
  %.0.i = phi i1 [ %5, %3 ], [ true, %1 ]
  ret i1 %.0.i
}